target datalayout = "e-m:e-p270:32:32-p271:32:32-p272:64:64-i64:64-i128:128-f80:128-n8:16:32:64-S128"
target triple = "x86_64-pc-linux-gnu"

%"class.OpenColorIO_v2_5dev::MatrixOpData::Offsets" = type { [4 x double] }
%"class.OpenColorIO_v2_5dev::ArrayT" = type { %"class.OpenColorIO_v2_5dev::ArrayBase", i64, i64, %"class.std::vector" }
%"class.OpenColorIO_v2_5dev::ArrayBase" = type { ptr }
%"class.std::vector" = type { %"struct.std::_Vector_base" }
%"struct.std::_Vector_base" = type { %"struct.std::_Vector_base<double, std::allocator<double>>::_Vector_impl" }
%"struct.std::_Vector_base<double, std::allocator<double>>::_Vector_impl" = type { %"struct.std::_Vector_base<double, std::allocator<double>>::_Vector_impl_data" }
%"struct.std::_Vector_base<double, std::allocator<double>>::_Vector_impl_data" = type { ptr, ptr, ptr }
%"class.OpenColorIO_v2_5dev::MatrixOpData" = type <{ %"class.OpenColorIO_v2_5dev::OpData", %"class.OpenColorIO_v2_5dev::MatrixOpData::MatrixArray", %"class.OpenColorIO_v2_5dev::MatrixOpData::Offsets", i32, i32, i32, [4 x i8] }>
%"class.OpenColorIO_v2_5dev::OpData" = type { ptr, %"class.std::mutex", %"class.OpenColorIO_v2_5dev::FormatMetadataImpl" }
%"class.std::mutex" = type { %"class.std::__mutex_base" }
%"class.std::__mutex_base" = type { %union.pthread_mutex_t }
%union.pthread_mutex_t = type { %struct.__pthread_mutex_s }
%struct.__pthread_mutex_s = type { i32, i32, i32, i32, i32, i16, i16, %struct.__pthread_internal_list }
%struct.__pthread_internal_list = type { ptr, ptr }
%"class.OpenColorIO_v2_5dev::FormatMetadataImpl" = type { %"class.OpenColorIO_v2_5dev::FormatMetadata", %"class.std::__cxx11::basic_string", %"class.std::__cxx11::basic_string", %"class.std::vector.4", %"class.std::vector.9" }
%"class.OpenColorIO_v2_5dev::FormatMetadata" = type { ptr }
%"class.std::__cxx11::basic_string" = type { %"struct.std::__cxx11::basic_string<char>::_Alloc_hider", i64, %union.anon.3 }
%"struct.std::__cxx11::basic_string<char>::_Alloc_hider" = type { ptr }
%union.anon.3 = type { i64, [8 x i8] }
%"class.std::vector.4" = type { %"struct.std::_Vector_base.5" }
%"struct.std::_Vector_base.5" = type { %"struct.std::_Vector_base<std::pair<std::__cxx11::basic_string<char>, std::__cxx11::basic_string<char>>, std::allocator<std::pair<std::__cxx11::basic_string<char>, std::__cxx11::basic_string<char>>>>::_Vector_impl" }
%"struct.std::_Vector_base<std::pair<std::__cxx11::basic_string<char>, std::__cxx11::basic_string<char>>, std::allocator<std::pair<std::__cxx11::basic_string<char>, std::__cxx11::basic_string<char>>>>::_Vector_impl" = type { %"struct.std::_Vector_base<std::pair<std::__cxx11::basic_string<char>, std::__cxx11::basic_string<char>>, std::allocator<std::pair<std::__cxx11::basic_string<char>, std::__cxx11::basic_string<char>>>>::_Vector_impl_data" }
%"struct.std::_Vector_base<std::pair<std::__cxx11::basic_string<char>, std::__cxx11::basic_string<char>>, std::allocator<std::pair<std::__cxx11::basic_string<char>, std::__cxx11::basic_string<char>>>>::_Vector_impl_data" = type { ptr, ptr, ptr }
%"class.std::vector.9" = type { %"struct.std::_Vector_base.10" }
%"struct.std::_Vector_base.10" = type { %"struct.std::_Vector_base<OpenColorIO_v2_5dev::FormatMetadataImpl, std::allocator<OpenColorIO_v2_5dev::FormatMetadataImpl>>::_Vector_impl" }
%"struct.std::_Vector_base<OpenColorIO_v2_5dev::FormatMetadataImpl, std::allocator<OpenColorIO_v2_5dev::FormatMetadataImpl>>::_Vector_impl" = type { %"struct.std::_Vector_base<OpenColorIO_v2_5dev::FormatMetadataImpl, std::allocator<OpenColorIO_v2_5dev::FormatMetadataImpl>>::_Vector_impl_data" }
%"struct.std::_Vector_base<OpenColorIO_v2_5dev::FormatMetadataImpl, std::allocator<OpenColorIO_v2_5dev::FormatMetadataImpl>>::_Vector_impl_data" = type { ptr, ptr, ptr }
%"class.OpenColorIO_v2_5dev::MatrixOpData::MatrixArray" = type { %"class.OpenColorIO_v2_5dev::ArrayT" }

; Function Attrs: mustprogress nounwind uwtable
define linkonce_odr hidden noundef nonnull align 8 dereferenceable(8) ptr @_ZNSt6vectorIdSaIdEEixEm(ptr noundef nonnull align 8 dereferenceable(24) %0, i64 noundef %1) #7 comdat align 2 {
  %3 = alloca ptr, align 8
  %4 = alloca i64, align 8
  store ptr %0, ptr %3, align 8, !tbaa !18
  store i64 %1, ptr %4, align 8, !tbaa !22
  %5 = load ptr, ptr %3, align 8
  %6 = getelementptr inbounds nuw %"struct.std::_Vector_base", ptr %5, i32 0, i32 0
  %7 = getelementptr inbounds nuw %"struct.std::_Vector_base<double, std::allocator<double>>::_Vector_impl_data", ptr %6, i32 0, i32 0
  %8 = load ptr, ptr %7, align 8, !tbaa !24
  %9 = load i64, ptr %4, align 8, !tbaa !22
  %10 = getelementptr inbounds nuw double, ptr %8, i64 %9
  ret ptr %10
}

; Function Attrs: inlinehint mustprogress nounwind uwtable
define linkonce_odr hidden noundef nonnull align 8 dereferenceable(24) ptr @_ZN19OpenColorIO_v2_5dev6ArrayTIdE9getValuesEv(ptr noundef nonnull align 8 dereferenceable(48) %0) #6 comdat align 2 {
  %2 = alloca ptr, align 8
  store ptr %0, ptr %2, align 8, !tbaa !20
  %3 = load ptr, ptr %2, align 8
  %4 = getelementptr inbounds nuw %"class.OpenColorIO_v2_5dev::ArrayT", ptr %3, i32 0, i32 3
  ret ptr %4
}

; Function Attrs: inlinehint mustprogress nounwind uwtable
define linkonce_odr hidden noundef nonnull align 8 dereferenceable(8) ptr @_ZN19OpenColorIO_v2_5dev12MatrixOpData7OffsetsixEm(ptr noundef nonnull align 8 dereferenceable(32) %0, i64 noundef %1) #6 comdat align 2 {
  %3 = alloca ptr, align 8
  %4 = alloca i64, align 8
  store ptr %0, ptr %3, align 8, !tbaa !3
  store i64 %1, ptr %4, align 8, !tbaa !22
  %5 = load ptr, ptr %3, align 8
  %6 = getelementptr inbounds nuw %"class.OpenColorIO_v2_5dev::MatrixOpData::Offsets", ptr %5, i32 0, i32 0
  %7 = load i64, ptr %4, align 8, !tbaa !22
  %8 = getelementptr inbounds nuw [4 x double], ptr %6, i64 0, i64 %7
  ret ptr %8
}

; Function Attrs: inlinehint mustprogress nounwind uwtable
define linkonce_odr hidden noundef nonnull align 8 dereferenceable(32) ptr @_ZN19OpenColorIO_v2_5dev12MatrixOpData10getOffsetsEv(ptr noundef nonnull align 8 dereferenceable(260) %0) #6 comdat align 2 {
  %2 = alloca ptr, align 8
  store ptr %0, ptr %2, align 8, !tbaa !26
  %3 = load ptr, ptr %2, align 8
  %4 = getelementptr inbounds nuw %"class.OpenColorIO_v2_5dev::MatrixOpData", ptr %3, i32 0, i32 2
  ret ptr %4
}

; Function Attrs: mustprogress uwtable
define hidden void @_ZN19OpenColorIO_v2_5dev12MatrixOpData13setArrayValueEmd(ptr noundef nonnull align 8 dereferenceable(260) %0, i64 noundef %1, double noundef %2) #4 align 2 {
  %4 = alloca ptr, align 8
  %5 = alloca i64, align 8
  %6 = alloca double, align 8
  store ptr %0, ptr %4, align 8, !tbaa !26
  store i64 %1, ptr %5, align 8, !tbaa !22
  store double %2, ptr %6, align 8, !tbaa !12
  %7 = load ptr, ptr %4, align 8
  %8 = load double, ptr %6, align 8, !tbaa !12
  %9 = getelementptr inbounds nuw %"class.OpenColorIO_v2_5dev::MatrixOpData", ptr %7, i32 0, i32 1
  %10 = call noundef nonnull align 8 dereferenceable(24) ptr @_ZN19OpenColorIO_v2_5dev6ArrayTIdE9getValuesEv(ptr noundef nonnull align 8 dereferenceable(48) %9)
  %11 = load i64, ptr %5, align 8, !tbaa !22
  %12 = call noundef nonnull align 8 dereferenceable(8) ptr @_ZNSt6vectorIdSaIdEEixEm(ptr noundef nonnull align 8 dereferenceable(24) %10, i64 noundef %11) #3
  store double %8, ptr %12, align 8, !tbaa !12
  ret void
}

; Function Attrs: mustprogress nounwind uwtable
define linkonce_odr hidden noundef nonnull align 8 dereferenceable(8) ptr @_ZNKSt6vectorIdSaIdEEixEm(ptr noundef nonnull align 8 dereferenceable(24) %0, i64 noundef %1) #7 comdat align 2 {
  %3 = alloca ptr, align 8
  %4 = alloca i64, align 8
  store ptr %0, ptr %3, align 8, !tbaa !18
  store i64 %1, ptr %4, align 8, !tbaa !22
  %5 = load ptr, ptr %3, align 8
  %6 = getelementptr inbounds nuw %"struct.std::_Vector_base", ptr %5, i32 0, i32 0
  %7 = getelementptr inbounds nuw %"struct.std::_Vector_base<double, std::allocator<double>>::_Vector_impl_data", ptr %6, i32 0, i32 0
  %8 = load ptr, ptr %7, align 8, !tbaa !24
  %9 = load i64, ptr %4, align 8, !tbaa !22
  %10 = getelementptr inbounds nuw double, ptr %8, i64 %9
  ret ptr %10
}

; Function Attrs: inlinehint mustprogress nounwind uwtable
define linkonce_odr hidden noundef nonnull align 8 dereferenceable(24) ptr @_ZNK19OpenColorIO_v2_5dev6ArrayTIdE9getValuesEv(ptr noundef nonnull align 8 dereferenceable(48) %0) #6 comdat align 2 {
  %2 = alloca ptr, align 8
  store ptr %0, ptr %2, align 8, !tbaa !20
  %3 = load ptr, ptr %2, align 8
  %4 = getelementptr inbounds nuw %"class.OpenColorIO_v2_5dev::ArrayT", ptr %3, i32 0, i32 3
  ret ptr %4
}

; Function Attrs: inlinehint mustprogress nounwind uwtable
define linkonce_odr hidden noundef nonnull align 8 dereferenceable(48) ptr @_ZN19OpenColorIO_v2_5dev12MatrixOpData8getArrayEv(ptr noundef nonnull align 8 dereferenceable(260) %0) #6 comdat align 2 {
  %2 = alloca ptr, align 8
  store ptr %0, ptr %2, align 8, !tbaa !26
  %3 = load ptr, ptr %2, align 8
  %4 = getelementptr inbounds nuw %"class.OpenColorIO_v2_5dev::MatrixOpData", ptr %3, i32 0, i32 1
  ret ptr %4
}

; Function Attrs: mustprogress uwtable
define hidden void @_ZN19OpenColorIO_v2_5dev12MatrixOpData7cleanUpEd(ptr noundef nonnull align 8 dereferenceable(260) %0, double noundef %1) #4 align 2 {
  %3 = alloca ptr, align 8
  %4 = alloca double, align 8
  %5 = alloca ptr, align 8
  %6 = alloca ptr, align 8
  %7 = alloca i64, align 8
  %8 = alloca double, align 8
  %9 = alloca i64, align 8
  %10 = alloca i32, align 4
  %11 = alloca i64, align 8
  %12 = alloca double, align 8
  %13 = alloca double, align 8
  %14 = alloca double, align 8
  %15 = alloca i64, align 8
  %16 = alloca i64, align 8
  %17 = alloca double, align 8
  %18 = alloca double, align 8
  %19 = alloca double, align 8
  %20 = alloca double, align 8
  %21 = alloca double, align 8
  %22 = alloca i64, align 8
  %23 = alloca double, align 8
  %24 = alloca double, align 8
  %25 = alloca double, align 8
  store ptr %0, ptr %3, align 8, !tbaa !26
  store double %1, ptr %4, align 8, !tbaa !12
  %26 = load ptr, ptr %3, align 8
  call void @llvm.lifetime.start.p0(i64 8, ptr %5) #3
  %27 = call noundef nonnull align 8 dereferenceable(48) ptr @_ZN19OpenColorIO_v2_5dev12MatrixOpData8getArrayEv(ptr noundef nonnull align 8 dereferenceable(260) %26)
  store ptr %27, ptr %5, align 8, !tbaa !20
  call void @llvm.lifetime.start.p0(i64 8, ptr %6) #3
  %28 = load ptr, ptr %5, align 8, !tbaa !20
  %29 = call noundef nonnull align 8 dereferenceable(24) ptr @_ZNK19OpenColorIO_v2_5dev6ArrayTIdE9getValuesEv(ptr noundef nonnull align 8 dereferenceable(48) %28)
  store ptr %29, ptr %6, align 8, !tbaa !18
  call void @llvm.lifetime.start.p0(i64 8, ptr %7) #3
  %30 = load ptr, ptr %5, align 8, !tbaa !20
  %31 = load ptr, ptr %30, align 8, !tbaa !34
  %32 = getelementptr inbounds ptr, ptr %31, i64 4
  %33 = load ptr, ptr %32, align 8
  %34 = call noundef i64 %33(ptr noundef nonnull align 8 dereferenceable(48) %30)
  store i64 %34, ptr %7, align 8, !tbaa !22
  call void @llvm.lifetime.start.p0(i64 8, ptr %8) #3
  store double 0.000000e+00, ptr %8, align 8, !tbaa !12
  call void @llvm.lifetime.start.p0(i64 8, ptr %9) #3
  store i64 0, ptr %9, align 8, !tbaa !22
  br label %35

35:                                               ; preds = %69, %2
  %36 = load i64, ptr %9, align 8, !tbaa !22
  %37 = load i64, ptr %7, align 8, !tbaa !22
  %38 = icmp ult i64 %36, %37
  br i1 %38, label %40, label %39

39:                                               ; preds = %35
  store i32 2, ptr %10, align 4
  call void @llvm.lifetime.end.p0(i64 8, ptr %9) #3
  br label %72

40:                                               ; preds = %35
  call void @llvm.lifetime.start.p0(i64 8, ptr %11) #3
  store i64 0, ptr %11, align 8, !tbaa !22
  br label %41

41:                                               ; preds = %65, %40
  %42 = load i64, ptr %11, align 8, !tbaa !22
  %43 = load i64, ptr %7, align 8, !tbaa !22
  %44 = icmp ult i64 %42, %43
  br i1 %44, label %46, label %45

45:                                               ; preds = %41
  store i32 5, ptr %10, align 4
  call void @llvm.lifetime.end.p0(i64 8, ptr %11) #3
  br label %68

46:                                               ; preds = %41
  call void @llvm.lifetime.start.p0(i64 8, ptr %12) #3
  %47 = load ptr, ptr %6, align 8, !tbaa !18
  %48 = load i64, ptr %9, align 8, !tbaa !22
  %49 = load i64, ptr %7, align 8, !tbaa !22
  %50 = mul i64 %48, %49
  %51 = load i64, ptr %11, align 8, !tbaa !22
  %52 = add i64 %50, %51
  %53 = call noundef nonnull align 8 dereferenceable(8) ptr @_ZNKSt6vectorIdSaIdEEixEm(ptr noundef nonnull align 8 dereferenceable(24) %47, i64 noundef %52) #3
  %54 = load double, ptr %53, align 8, !tbaa !12
  %55 = call double @llvm.fabs.f64(double %54)
  store double %55, ptr %12, align 8, !tbaa !12
  %56 = load double, ptr %8, align 8, !tbaa !12
  %57 = load double, ptr %12, align 8, !tbaa !12
  %58 = fcmp ogt double %56, %57
  br i1 %58, label %59, label %61

59:                                               ; preds = %46
  %60 = load double, ptr %8, align 8, !tbaa !12
  br label %63

61:                                               ; preds = %46
  %62 = load double, ptr %12, align 8, !tbaa !12
  br label %63

63:                                               ; preds = %61, %59
  %64 = phi double [ %60, %59 ], [ %62, %61 ]
  store double %64, ptr %8, align 8, !tbaa !12
  call void @llvm.lifetime.end.p0(i64 8, ptr %12) #3
  br label %65

65:                                               ; preds = %63
  %66 = load i64, ptr %11, align 8, !tbaa !22
  %67 = add i64 %66, 1
  store i64 %67, ptr %11, align 8, !tbaa !22
  br label %41, !llvm.loop !126

68:                                               ; preds = %45
  br label %69

69:                                               ; preds = %68
  %70 = load i64, ptr %9, align 8, !tbaa !22
  %71 = add i64 %70, 1
  store i64 %71, ptr %9, align 8, !tbaa !22
  br label %35, !llvm.loop !127

72:                                               ; preds = %39
  call void @llvm.lifetime.start.p0(i64 8, ptr %13) #3
  %73 = load double, ptr %8, align 8, !tbaa !12
  %74 = fcmp ogt double %73, 1.000000e-04
  br i1 %74, label %75, label %77

75:                                               ; preds = %72
  %76 = load double, ptr %8, align 8, !tbaa !12
  br label %78

77:                                               ; preds = %72
  br label %78

78:                                               ; preds = %77, %75
  %79 = phi double [ %76, %75 ], [ 1.000000e-04, %77 ]
  store double %79, ptr %13, align 8, !tbaa !12
  call void @llvm.lifetime.start.p0(i64 8, ptr %14) #3
  %80 = load double, ptr %13, align 8, !tbaa !12
  %81 = fmul double %80, 0x3E7AD7F29ABCAF48
  store double %81, ptr %14, align 8, !tbaa !12
  call void @llvm.lifetime.start.p0(i64 8, ptr %15) #3
  store i64 0, ptr %15, align 8, !tbaa !22
  br label %82

82:                                               ; preds = %123, %78
  %83 = load i64, ptr %15, align 8, !tbaa !22
  %84 = load i64, ptr %7, align 8, !tbaa !22
  %85 = icmp ult i64 %83, %84
  br i1 %85, label %87, label %86

86:                                               ; preds = %82
  store i32 8, ptr %10, align 4
  call void @llvm.lifetime.end.p0(i64 8, ptr %15) #3
  br label %126

87:                                               ; preds = %82
  call void @llvm.lifetime.start.p0(i64 8, ptr %16) #3
  store i64 0, ptr %16, align 8, !tbaa !22
  br label %88

88:                                               ; preds = %119, %87
  %89 = load i64, ptr %16, align 8, !tbaa !22
  %90 = load i64, ptr %7, align 8, !tbaa !22
  %91 = icmp ult i64 %89, %90
  br i1 %91, label %93, label %92

92:                                               ; preds = %88
  store i32 11, ptr %10, align 4
  call void @llvm.lifetime.end.p0(i64 8, ptr %16) #3
  br label %122

93:                                               ; preds = %88
  call void @llvm.lifetime.start.p0(i64 8, ptr %17) #3
  %94 = load ptr, ptr %6, align 8, !tbaa !18
  %95 = load i64, ptr %15, align 8, !tbaa !22
  %96 = load i64, ptr %7, align 8, !tbaa !22
  %97 = mul i64 %95, %96
  %98 = load i64, ptr %16, align 8, !tbaa !22
  %99 = add i64 %97, %98
  %100 = call noundef nonnull align 8 dereferenceable(8) ptr @_ZNKSt6vectorIdSaIdEEixEm(ptr noundef nonnull align 8 dereferenceable(24) %94, i64 noundef %99) #3
  %101 = load double, ptr %100, align 8, !tbaa !12
  store double %101, ptr %17, align 8, !tbaa !12
  call void @llvm.lifetime.start.p0(i64 8, ptr %18) #3
  %102 = load double, ptr %17, align 8, !tbaa !12
  %103 = call double @llvm.round.f64(double %102)
  store double %103, ptr %18, align 8, !tbaa !12
  call void @llvm.lifetime.start.p0(i64 8, ptr %19) #3
  %104 = load double, ptr %17, align 8, !tbaa !12
  %105 = load double, ptr %18, align 8, !tbaa !12
  %106 = fsub double %104, %105
  %107 = call double @llvm.fabs.f64(double %106)
  store double %107, ptr %19, align 8, !tbaa !12
  %108 = load double, ptr %19, align 8, !tbaa !12
  %109 = load double, ptr %14, align 8, !tbaa !12
  %110 = fcmp olt double %108, %109
  br i1 %110, label %111, label %118

111:                                              ; preds = %93
  %112 = load i64, ptr %15, align 8, !tbaa !22
  %113 = load i64, ptr %7, align 8, !tbaa !22
  %114 = mul i64 %112, %113
  %115 = load i64, ptr %16, align 8, !tbaa !22
  %116 = add i64 %114, %115
  %117 = load double, ptr %18, align 8, !tbaa !12
  call void @_ZN19OpenColorIO_v2_5dev12MatrixOpData13setArrayValueEmd(ptr noundef nonnull align 8 dereferenceable(260) %26, i64 noundef %116, double noundef %117)
  br label %118

118:                                              ; preds = %111, %93
  call void @llvm.lifetime.end.p0(i64 8, ptr %19) #3
  call void @llvm.lifetime.end.p0(i64 8, ptr %18) #3
  call void @llvm.lifetime.end.p0(i64 8, ptr %17) #3
  br label %119

119:                                              ; preds = %118
  %120 = load i64, ptr %16, align 8, !tbaa !22
  %121 = add i64 %120, 1
  store i64 %121, ptr %16, align 8, !tbaa !22
  br label %88, !llvm.loop !128

122:                                              ; preds = %92
  br label %123

123:                                              ; preds = %122
  %124 = load i64, ptr %15, align 8, !tbaa !22
  %125 = add i64 %124, 1
  store i64 %125, ptr %15, align 8, !tbaa !22
  br label %82, !llvm.loop !129

126:                                              ; preds = %86
  call void @llvm.lifetime.start.p0(i64 8, ptr %20) #3
  %127 = load double, ptr %4, align 8, !tbaa !12
  %128 = fcmp ogt double %127, 1.000000e-04
  br i1 %128, label %129, label %131

129:                                              ; preds = %126
  %130 = load double, ptr %4, align 8, !tbaa !12
  br label %132

131:                                              ; preds = %126
  br label %132

132:                                              ; preds = %131, %129
  %133 = phi double [ %130, %129 ], [ 1.000000e-04, %131 ]
  store double %133, ptr %20, align 8, !tbaa !12
  call void @llvm.lifetime.start.p0(i64 8, ptr %21) #3
  %134 = load double, ptr %20, align 8, !tbaa !12
  %135 = fmul double %134, 0x3E7AD7F29ABCAF48
  store double %135, ptr %21, align 8, !tbaa !12
  call void @llvm.lifetime.start.p0(i64 8, ptr %22) #3
  store i64 0, ptr %22, align 8, !tbaa !22
  br label %136

136:                                              ; preds = %159, %132
  %137 = load i64, ptr %22, align 8, !tbaa !22
  %138 = load i64, ptr %7, align 8, !tbaa !22
  %139 = icmp ult i64 %137, %138
  br i1 %139, label %141, label %140

140:                                              ; preds = %136
  store i32 14, ptr %10, align 4
  call void @llvm.lifetime.end.p0(i64 8, ptr %22) #3
  br label %162

141:                                              ; preds = %136
  call void @llvm.lifetime.start.p0(i64 8, ptr %23) #3
  %142 = call noundef nonnull align 8 dereferenceable(32) ptr @_ZN19OpenColorIO_v2_5dev12MatrixOpData10getOffsetsEv(ptr noundef nonnull align 8 dereferenceable(260) %26)
  %143 = load i64, ptr %22, align 8, !tbaa !22
  %144 = call noundef nonnull align 8 dereferenceable(8) ptr @_ZN19OpenColorIO_v2_5dev12MatrixOpData7OffsetsixEm(ptr noundef nonnull align 8 dereferenceable(32) %142, i64 noundef %143)
  %145 = load double, ptr %144, align 8, !tbaa !12
  store double %145, ptr %23, align 8, !tbaa !12
  call void @llvm.lifetime.start.p0(i64 8, ptr %24) #3
  %146 = load double, ptr %23, align 8, !tbaa !12
  %147 = call double @llvm.round.f64(double %146)
  store double %147, ptr %24, align 8, !tbaa !12
  call void @llvm.lifetime.start.p0(i64 8, ptr %25) #3
  %148 = load double, ptr %23, align 8, !tbaa !12
  %149 = load double, ptr %24, align 8, !tbaa !12
  %150 = fsub double %148, %149
  %151 = call double @llvm.fabs.f64(double %150)
  store double %151, ptr %25, align 8, !tbaa !12
  %152 = load double, ptr %25, align 8, !tbaa !12
  %153 = load double, ptr %21, align 8, !tbaa !12
  %154 = fcmp olt double %152, %153
  br i1 %154, label %155, label %158

155:                                              ; preds = %141
  %156 = load i64, ptr %22, align 8, !tbaa !22
  %157 = load double, ptr %24, align 8, !tbaa !12
  call void @_ZN19OpenColorIO_v2_5dev12MatrixOpData14setOffsetValueEmd(ptr noundef nonnull align 8 dereferenceable(260) %26, i64 noundef %156, double noundef %157)
  br label %158

158:                                              ; preds = %155, %141
  call void @llvm.lifetime.end.p0(i64 8, ptr %25) #3
  call void @llvm.lifetime.end.p0(i64 8, ptr %24) #3
  call void @llvm.lifetime.end.p0(i64 8, ptr %23) #3
  br label %159

159:                                              ; preds = %158
  %160 = load i64, ptr %22, align 8, !tbaa !22
  %161 = add i64 %160, 1
  store i64 %161, ptr %22, align 8, !tbaa !22
  br label %136, !llvm.loop !130

162:                                              ; preds = %140
  call void @llvm.lifetime.end.p0(i64 8, ptr %21) #3
  call void @llvm.lifetime.end.p0(i64 8, ptr %20) #3
  call void @llvm.lifetime.end.p0(i64 8, ptr %14) #3
  call void @llvm.lifetime.end.p0(i64 8, ptr %13) #3
  call void @llvm.lifetime.end.p0(i64 8, ptr %8) #3
  call void @llvm.lifetime.end.p0(i64 8, ptr %7) #3
  call void @llvm.lifetime.end.p0(i64 8, ptr %6) #3
  call void @llvm.lifetime.end.p0(i64 8, ptr %5) #3
  ret void
}