; Function Attrs: mustprogress uwtable
define hidden void @_ZN19OpenColorIO_v2_5dev12MatrixOpData7cleanUpEd(ptr noundef nonnull align 8 dereferenceable(260) %0, double noundef %1) local_unnamed_addr #3 align 2 {
  %3 = getelementptr inbounds nuw i8, ptr %0, i64 168
  %4 = getelementptr inbounds nuw i8, ptr %0, i64 192
  %5 = load ptr, ptr %3, align 8, !tbaa !15
  %6 = getelementptr inbounds nuw i8, ptr %5, i64 32
  %7 = load ptr, ptr %6, align 8
  %8 = tail call noundef i64 %7(ptr noundef nonnull align 8 dereferenceable(48) %3)
  %.not = icmp eq i64 %8, 0
  br i1 %.not, label %._crit_edge68, label %.preheader58.lr.ph

.preheader58.lr.ph:                               ; preds = %2
  %9 = load ptr, ptr %4, align 8, !tbaa !9
  br label %.preheader58

.preheader58:                                     ; preds = %.preheader58.lr.ph, %16
  %.062 = phi double [ 0.000000e+00, %.preheader58.lr.ph ], [ %23, %16 ]
  %.05261 = phi i64 [ 0, %.preheader58.lr.ph ], [ %17, %16 ]
  %10 = mul i64 %.05261, %8
  %11 = getelementptr double, ptr %9, i64 %10
  br label %18

.preheader.lr.ph:                                 ; preds = %16
  %12 = fcmp ogt double %23, 1.000000e-04
  %13 = select i1 %12, double %23, double 1.000000e-04
  %14 = fmul double %13, 0x3E7AD7F29ABCAF48
  %15 = load ptr, ptr %4, align 8, !tbaa !9
  br label %.preheader

16:                                               ; preds = %18
  %17 = add nuw i64 %.05261, 1
  %exitcond71.not = icmp eq i64 %17, %8
  br i1 %exitcond71.not, label %.preheader.lr.ph, label %.preheader58, !llvm.loop !130

18:                                               ; preds = %.preheader58, %18
  %.160 = phi double [ %.062, %.preheader58 ], [ %23, %18 ]
  %.05459 = phi i64 [ 0, %.preheader58 ], [ %24, %18 ]
  %19 = getelementptr double, ptr %11, i64 %.05459
  %20 = load double, ptr %19, align 8, !tbaa !7
  %21 = tail call double @llvm.fabs.f64(double %20)
  %22 = fcmp ogt double %.160, %21
  %23 = select i1 %22, double %.160, double %21
  %24 = add nuw i64 %.05459, 1
  %exitcond.not = icmp eq i64 %24, %8
  br i1 %exitcond.not, label %16, label %18, !llvm.loop !131

.preheader:                                       ; preds = %.preheader.lr.ph, %31
  %.05564 = phi i64 [ 0, %.preheader.lr.ph ], [ %32, %31 ]
  %25 = mul i64 %.05564, %8
  %26 = load ptr, ptr %4, align 8
  br label %33

.lr.ph:                                           ; preds = %31
  %27 = fcmp ogt double %1, 1.000000e-04
  %28 = select i1 %27, double %1, double 1.000000e-04
  %29 = fmul double %28, 0x3E7AD7F29ABCAF48
  %30 = getelementptr inbounds nuw i8, ptr %0, i64 216
  br label %45

31:                                               ; preds = %43
  %32 = add nuw i64 %.05564, 1
  %exitcond73.not = icmp eq i64 %32, %8
  br i1 %exitcond73.not, label %.lr.ph, label %.preheader, !llvm.loop !132

33:                                               ; preds = %.preheader, %43
  %.05663 = phi i64 [ 0, %.preheader ], [ %44, %43 ]
  %34 = add i64 %.05663, %25
  %35 = getelementptr inbounds nuw double, ptr %15, i64 %34
  %36 = load double, ptr %35, align 8, !tbaa !7
  %37 = tail call double @llvm.round.f64(double %36)
  %38 = fsub double %36, %37
  %39 = tail call double @llvm.fabs.f64(double %38)
  %40 = fcmp olt double %39, %14
  br i1 %40, label %41, label %43

41:                                               ; preds = %33
  %42 = getelementptr inbounds nuw double, ptr %26, i64 %34
  store double %37, ptr %42, align 8, !tbaa !7
  br label %43

43:                                               ; preds = %41, %33
  %44 = add nuw i64 %.05663, 1
  %exitcond72.not = icmp eq i64 %44, %8
  br i1 %exitcond72.not, label %31, label %33, !llvm.loop !133

._crit_edge68:                                    ; preds = %53, %2
  ret void

45:                                               ; preds = %.lr.ph, %53
  %.05366 = phi i64 [ 0, %.lr.ph ], [ %54, %53 ]
  %46 = getelementptr inbounds nuw [4 x double], ptr %30, i64 0, i64 %.05366
  %47 = load double, ptr %46, align 8, !tbaa !7
  %48 = tail call double @llvm.round.f64(double %47)
  %49 = fsub double %47, %48
  %50 = tail call double @llvm.fabs.f64(double %49)
  %51 = fcmp olt double %50, %29
  br i1 %51, label %52, label %53

52:                                               ; preds = %45
  tail call void @_ZN19OpenColorIO_v2_5dev12MatrixOpData14setOffsetValueEmd(ptr noundef nonnull align 8 dereferenceable(260) %0, i64 noundef %.05366, double noundef %48)
  br label %53

53:                                               ; preds = %52, %45
  %54 = add nuw i64 %.05366, 1
  %exitcond74.not = icmp eq i64 %54, %8
  br i1 %exitcond74.not, label %._crit_edge68, label %45, !llvm.loop !134
}